; Function Attrs: nounwind sspstrong uwtable
define internal i64 @ossl_bn_coerce(i64 noundef %0, i64 noundef %1) #0 {
  %3 = icmp eq i64 %1, 0
  %4 = and i64 %1, 7
  %5 = icmp ne i64 %4, 0
  %6 = or i1 %3, %5
  br i1 %6, label %7, label %rb_type.exit

7:                                                ; preds = %2
  %8 = tail call i64 @llvm.fshl.i64(i64 %1, i64 %1, i64 62)
  switch i64 %8, label %9 [
    i64 0, label %rb_type.exit.thread
    i64 1, label %rb_type.exit.thread
    i64 5, label %rb_type.exit.thread
    i64 9, label %rb_type.exit.thread
  ]

9:                                                ; preds = %7
  %10 = and i64 %1, 1
  %.not.i = icmp eq i64 %10, 0
  br i1 %.not.i, label %rb_type.exit.thread, label %rb_type.exit.thread8

rb_type.exit:                                     ; preds = %2
  %11 = inttoptr i64 %1 to ptr
  %12 = load i64, ptr %11, align 8, !tbaa !15
  %13 = trunc i64 %12 to i32
  %14 = and i32 %13, 31
  switch i32 %14, label %rb_type.exit.thread [
    i32 5, label %15
    i32 21, label %rb_type.exit.thread8
    i32 10, label %rb_type.exit.thread8
  ]

15:                                               ; preds = %rb_type.exit
  %16 = tail call i64 @ossl_bn_to_s(i32 noundef 0, ptr noundef null, i64 noundef %0)
  br label %30

rb_type.exit.thread8:                             ; preds = %9, %rb_type.exit, %rb_type.exit
  %17 = tail call ptr @rb_check_typeddata(i64 noundef %0, ptr noundef nonnull @ossl_bn_type) #11
  %.not.i6 = icmp eq ptr %17, null
  br i1 %.not.i6, label %18, label %20

18:                                               ; preds = %rb_type.exit.thread8
  %19 = load i64, ptr @rb_eRuntimeError, align 8, !tbaa !6
  tail call void (i64, ptr, ...) @ossl_raise(i64 noundef %19, ptr noundef nonnull @.str) #12
  unreachable

20:                                               ; preds = %rb_type.exit.thread8
  %21 = tail call ptr @BN_bn2hex(ptr noundef nonnull %17) #11
  %.not6.i = icmp eq ptr %21, null
  br i1 %.not6.i, label %22, label %ossl_bn_to_i.exit

22:                                               ; preds = %20
  %23 = load i64, ptr @eBNError, align 8, !tbaa !6
  tail call void (i64, ptr, ...) @ossl_raise(i64 noundef %23, ptr noundef null) #12
  unreachable

ossl_bn_to_i.exit:                                ; preds = %20
  %24 = tail call i64 @rb_cstr_to_inum(ptr noundef nonnull %21, i32 noundef 16, i32 noundef 20) #11
  tail call void @CRYPTO_free(ptr noundef nonnull %21, ptr noundef nonnull @.str.77, i32 noundef 386) #11
  br label %30

rb_type.exit.thread:                              ; preds = %9, %7, %7, %7, %7, %rb_type.exit
  %25 = load i64, ptr @cBN, align 8, !tbaa !6
  %26 = tail call i64 @rb_obj_is_kind_of(i64 noundef %1, i64 noundef %25) #11
  %27 = and i64 %26, -5
  %.not = icmp eq i64 %27, 0
  br i1 %.not, label %28, label %30

28:                                               ; preds = %rb_type.exit.thread
  %29 = load i64, ptr @rb_eTypeError, align 8, !tbaa !6
  tail call void (i64, ptr, ...) @ossl_raise(i64 noundef %29, ptr noundef nonnull @.str.78) #12
  unreachable

30:                                               ; preds = %rb_type.exit.thread, %ossl_bn_to_i.exit, %15
  %.0 = phi i64 [ %0, %rb_type.exit.thread ], [ %24, %ossl_bn_to_i.exit ], [ %16, %15 ]
  %31 = tail call i64 @rb_assoc_new(i64 noundef %1, i64 noundef %.0) #11
  ret i64 %31
}